target datalayout = "e-m:e-p270:32:32-p271:32:32-p272:64:64-i64:64-i128:128-f80:128-n8:16:32:64-S128"
target triple = "x86_64-pc-linux-gnu"

%struct.Vec_Ptr_t_ = type { i32, i32, ptr }
%struct.Vec_Int_t_ = type { i32, i32, ptr }

; Function Attrs: nounwind uwtable
define internal void @Vec_PtrShrink(ptr noundef %0, i32 noundef %1) #0 {
  %3 = alloca ptr, align 8
  %4 = alloca i32, align 4
  store ptr %0, ptr %3, align 8
  store i32 %1, ptr %4, align 4
  %5 = load i32, ptr %4, align 4
  %6 = load ptr, ptr %3, align 8
  %7 = getelementptr inbounds %struct.Vec_Ptr_t_, ptr %6, i32 0, i32 1
  store i32 %5, ptr %7, align 4
  ret void
}

; Function Attrs: nounwind uwtable
define internal void @Vec_PtrWriteEntry(ptr noundef %0, i32 noundef %1, ptr noundef %2) #0 {
  %4 = alloca ptr, align 8
  %5 = alloca i32, align 4
  %6 = alloca ptr, align 8
  store ptr %0, ptr %4, align 8
  store i32 %1, ptr %5, align 4
  store ptr %2, ptr %6, align 8
  %7 = load ptr, ptr %6, align 8
  %8 = load ptr, ptr %4, align 8
  %9 = getelementptr inbounds %struct.Vec_Ptr_t_, ptr %8, i32 0, i32 2
  %10 = load ptr, ptr %9, align 8
  %11 = load i32, ptr %5, align 4
  %12 = sext i32 %11 to i64
  %13 = getelementptr inbounds ptr, ptr %10, i64 %12
  store ptr %7, ptr %13, align 8
  ret void
}

; Function Attrs: nounwind uwtable
define internal void @Vec_IntFree(ptr noundef %0) #0 {
  %2 = alloca ptr, align 8
  store ptr %0, ptr %2, align 8
  %3 = load ptr, ptr %2, align 8
  %4 = getelementptr inbounds %struct.Vec_Int_t_, ptr %3, i32 0, i32 2
  %5 = load ptr, ptr %4, align 8
  %6 = icmp ne ptr %5, null
  br i1 %6, label %7, label %13

7:                                                ; preds = %1
  %8 = load ptr, ptr %2, align 8
  %9 = getelementptr inbounds %struct.Vec_Int_t_, ptr %8, i32 0, i32 2
  %10 = load ptr, ptr %9, align 8
  call void @free(ptr noundef %10) #10
  %11 = load ptr, ptr %2, align 8
  %12 = getelementptr inbounds %struct.Vec_Int_t_, ptr %11, i32 0, i32 2
  store ptr null, ptr %12, align 8
  br label %14

13:                                               ; preds = %1
  br label %14

14:                                               ; preds = %13, %7
  %15 = load ptr, ptr %2, align 8
  %16 = icmp ne ptr %15, null
  br i1 %16, label %17, label %19

17:                                               ; preds = %14
  %18 = load ptr, ptr %2, align 8
  call void @free(ptr noundef %18) #10
  store ptr null, ptr %2, align 8
  br label %20

19:                                               ; preds = %14
  br label %20

20:                                               ; preds = %19, %17
  ret void
}

; Function Attrs: nounwind uwtable
define internal ptr @Vec_IntDup(ptr noundef %0) #0 {
  %2 = alloca ptr, align 8
  %3 = alloca ptr, align 8
  store ptr %0, ptr %2, align 8
  %4 = call noalias ptr @malloc(i64 noundef 16) #9
  store ptr %4, ptr %3, align 8
  %5 = load ptr, ptr %2, align 8
  %6 = getelementptr inbounds %struct.Vec_Int_t_, ptr %5, i32 0, i32 1
  %7 = load i32, ptr %6, align 4
  %8 = load ptr, ptr %3, align 8
  %9 = getelementptr inbounds %struct.Vec_Int_t_, ptr %8, i32 0, i32 1
  store i32 %7, ptr %9, align 4
  %10 = load ptr, ptr %2, align 8
  %11 = getelementptr inbounds %struct.Vec_Int_t_, ptr %10, i32 0, i32 1
  %12 = load i32, ptr %11, align 4
  %13 = load ptr, ptr %3, align 8
  %14 = getelementptr inbounds %struct.Vec_Int_t_, ptr %13, i32 0, i32 0
  store i32 %12, ptr %14, align 8
  %15 = load ptr, ptr %3, align 8
  %16 = getelementptr inbounds %struct.Vec_Int_t_, ptr %15, i32 0, i32 0
  %17 = load i32, ptr %16, align 8
  %18 = icmp ne i32 %17, 0
  br i1 %18, label %19, label %26

19:                                               ; preds = %1
  %20 = load ptr, ptr %3, align 8
  %21 = getelementptr inbounds %struct.Vec_Int_t_, ptr %20, i32 0, i32 0
  %22 = load i32, ptr %21, align 8
  %23 = sext i32 %22 to i64
  %24 = mul i64 4, %23
  %25 = call noalias ptr @malloc(i64 noundef %24) #9
  br label %27

26:                                               ; preds = %1
  br label %27

27:                                               ; preds = %26, %19
  %28 = phi ptr [ %25, %19 ], [ null, %26 ]
  %29 = load ptr, ptr %3, align 8
  %30 = getelementptr inbounds %struct.Vec_Int_t_, ptr %29, i32 0, i32 2
  store ptr %28, ptr %30, align 8
  %31 = load ptr, ptr %3, align 8
  %32 = getelementptr inbounds %struct.Vec_Int_t_, ptr %31, i32 0, i32 2
  %33 = load ptr, ptr %32, align 8
  %34 = load ptr, ptr %2, align 8
  %35 = getelementptr inbounds %struct.Vec_Int_t_, ptr %34, i32 0, i32 2
  %36 = load ptr, ptr %35, align 8
  %37 = load ptr, ptr %2, align 8
  %38 = getelementptr inbounds %struct.Vec_Int_t_, ptr %37, i32 0, i32 1
  %39 = load i32, ptr %38, align 4
  %40 = sext i32 %39 to i64
  %41 = mul i64 4, %40
  call void @llvm.memcpy.p0.p0.i64(ptr align 4 %33, ptr align 4 %36, i64 %41, i1 false)
  %42 = load ptr, ptr %3, align 8
  ret ptr %42
}

; Function Attrs: nounwind uwtable
define internal i32 @Vec_IntSize(ptr noundef %0) #0 {
  %2 = alloca ptr, align 8
  store ptr %0, ptr %2, align 8
  %3 = load ptr, ptr %2, align 8
  %4 = getelementptr inbounds %struct.Vec_Int_t_, ptr %3, i32 0, i32 1
  %5 = load i32, ptr %4, align 4
  ret i32 %5
}

; Function Attrs: nounwind uwtable
define internal ptr @Vec_PtrEntry(ptr noundef %0, i32 noundef %1) #0 {
  %3 = alloca ptr, align 8
  %4 = alloca i32, align 4
  store ptr %0, ptr %3, align 8
  store i32 %1, ptr %4, align 4
  %5 = load ptr, ptr %3, align 8
  %6 = getelementptr inbounds %struct.Vec_Ptr_t_, ptr %5, i32 0, i32 2
  %7 = load ptr, ptr %6, align 8
  %8 = load i32, ptr %4, align 4
  %9 = sext i32 %8 to i64
  %10 = getelementptr inbounds ptr, ptr %7, i64 %9
  %11 = load ptr, ptr %10, align 8
  ret ptr %11
}

; Function Attrs: nounwind uwtable
define internal i32 @Vec_PtrSize(ptr noundef %0) #0 {
  %2 = alloca ptr, align 8
  store ptr %0, ptr %2, align 8
  %3 = load ptr, ptr %2, align 8
  %4 = getelementptr inbounds %struct.Vec_Ptr_t_, ptr %3, i32 0, i32 1
  %5 = load i32, ptr %4, align 4
  ret i32 %5
}

; Function Attrs: nounwind uwtable
define void @Abc_NtkPartitionCompact(ptr noundef %0, ptr noundef %1, i32 noundef %2) #0 {
  %4 = alloca ptr, align 8
  %5 = alloca ptr, align 8
  %6 = alloca i32, align 4
  %7 = alloca ptr, align 8
  %8 = alloca ptr, align 8
  %9 = alloca ptr, align 8
  %10 = alloca ptr, align 8
  %11 = alloca i32, align 4
  %12 = alloca i32, align 4
  store ptr %0, ptr %4, align 8
  store ptr %1, ptr %5, align 8
  store i32 %2, ptr %6, align 4
  %13 = load i32, ptr %6, align 4
  %14 = icmp eq i32 %13, 0
  br i1 %14, label %15, label %16

15:                                               ; preds = %3
  store i32 200, ptr %6, align 4
  br label %16

16:                                               ; preds = %15, %3
  store i32 0, ptr %12, align 4
  store ptr null, ptr %9, align 8
  store ptr null, ptr %8, align 8
  store i32 0, ptr %11, align 4
  br label %17

17:                                               ; preds = %83, %16
  %18 = load i32, ptr %11, align 4
  %19 = load ptr, ptr %5, align 8
  %20 = call i32 @Vec_PtrSize(ptr noundef %19)
  %21 = icmp slt i32 %18, %20
  br i1 %21, label %22, label %26

22:                                               ; preds = %17
  %23 = load ptr, ptr %5, align 8
  %24 = load i32, ptr %11, align 4
  %25 = call ptr @Vec_PtrEntry(ptr noundef %23, i32 noundef %24)
  store ptr %25, ptr %7, align 8
  br label %26

26:                                               ; preds = %22, %17
  %27 = phi i1 [ false, %17 ], [ true, %22 ]
  br i1 %27, label %28, label %86

28:                                               ; preds = %26
  %29 = load ptr, ptr %7, align 8
  %30 = call i32 @Vec_IntSize(ptr noundef %29)
  %31 = load i32, ptr %6, align 4
  %32 = icmp slt i32 %30, %31
  br i1 %32, label %33, label %63

33:                                               ; preds = %28
  %34 = load ptr, ptr %9, align 8
  %35 = icmp eq ptr %34, null
  br i1 %35, label %36, label %42

36:                                               ; preds = %33
  %37 = load ptr, ptr %7, align 8
  %38 = call ptr @Vec_IntDup(ptr noundef %37)
  store ptr %38, ptr %9, align 8
  %39 = load ptr, ptr %4, align 8
  %40 = load i32, ptr %11, align 4
  %41 = call ptr @Vec_PtrEntry(ptr noundef %39, i32 noundef %40)
  store ptr %41, ptr %8, align 8
  br label %56

42:                                               ; preds = %33
  %43 = load ptr, ptr %9, align 8
  store ptr %43, ptr %10, align 8
  %44 = load ptr, ptr %7, align 8
  %45 = call ptr @Vec_IntTwoMerge(ptr noundef %43, ptr noundef %44)
  store ptr %45, ptr %9, align 8
  %46 = load ptr, ptr %10, align 8
  call void @Vec_IntFree(ptr noundef %46)
  %47 = load ptr, ptr %8, align 8
  store ptr %47, ptr %10, align 8
  %48 = load ptr, ptr %4, align 8
  %49 = load i32, ptr %11, align 4
  %50 = call ptr @Vec_PtrEntry(ptr noundef %48, i32 noundef %49)
  %51 = call ptr @Vec_IntTwoMerge(ptr noundef %47, ptr noundef %50)
  store ptr %51, ptr %8, align 8
  %52 = load ptr, ptr %10, align 8
  call void @Vec_IntFree(ptr noundef %52)
  %53 = load ptr, ptr %4, align 8
  %54 = load i32, ptr %11, align 4
  %55 = call ptr @Vec_PtrEntry(ptr noundef %53, i32 noundef %54)
  call void @Vec_IntFree(ptr noundef %55)
  br label %56

56:                                               ; preds = %42, %36
  %57 = load ptr, ptr %9, align 8
  %58 = call i32 @Vec_IntSize(ptr noundef %57)
  %59 = load i32, ptr %6, align 4
  %60 = icmp slt i32 %58, %59
  br i1 %60, label %61, label %62

61:                                               ; preds = %56
  br label %83

62:                                               ; preds = %56
  br label %67

63:                                               ; preds = %28
  %64 = load ptr, ptr %4, align 8
  %65 = load i32, ptr %11, align 4
  %66 = call ptr @Vec_PtrEntry(ptr noundef %64, i32 noundef %65)
  store ptr %66, ptr %8, align 8
  br label %67

67:                                               ; preds = %63, %62
  %68 = load ptr, ptr %4, align 8
  %69 = load i32, ptr %12, align 4
  %70 = load ptr, ptr %8, align 8
  call void @Vec_PtrWriteEntry(ptr noundef %68, i32 noundef %69, ptr noundef %70)
  store ptr null, ptr %8, align 8
  %71 = load ptr, ptr %9, align 8
  %72 = icmp ne ptr %71, null
  br i1 %72, label %73, label %80

73:                                               ; preds = %67
  %74 = load ptr, ptr %5, align 8
  %75 = load i32, ptr %12, align 4
  %76 = call ptr @Vec_PtrEntry(ptr noundef %74, i32 noundef %75)
  call void @Vec_IntFree(ptr noundef %76)
  %77 = load ptr, ptr %5, align 8
  %78 = load i32, ptr %12, align 4
  %79 = load ptr, ptr %9, align 8
  call void @Vec_PtrWriteEntry(ptr noundef %77, i32 noundef %78, ptr noundef %79)
  store ptr null, ptr %9, align 8
  br label %80

80:                                               ; preds = %73, %67
  %81 = load i32, ptr %12, align 4
  %82 = add nsw i32 %81, 1
  store i32 %82, ptr %12, align 4
  br label %83

83:                                               ; preds = %80, %61
  %84 = load i32, ptr %11, align 4
  %85 = add nsw i32 %84, 1
  store i32 %85, ptr %11, align 4
  br label %17, !llvm.loop !29

86:                                               ; preds = %26
  %87 = load ptr, ptr %8, align 8
  %88 = icmp ne ptr %87, null
  br i1 %88, label %89, label %101

89:                                               ; preds = %86
  %90 = load ptr, ptr %4, align 8
  %91 = load i32, ptr %12, align 4
  %92 = load ptr, ptr %8, align 8
  call void @Vec_PtrWriteEntry(ptr noundef %90, i32 noundef %91, ptr noundef %92)
  store ptr null, ptr %8, align 8
  %93 = load ptr, ptr %5, align 8
  %94 = load i32, ptr %12, align 4
  %95 = call ptr @Vec_PtrEntry(ptr noundef %93, i32 noundef %94)
  call void @Vec_IntFree(ptr noundef %95)
  %96 = load ptr, ptr %5, align 8
  %97 = load i32, ptr %12, align 4
  %98 = load ptr, ptr %9, align 8
  call void @Vec_PtrWriteEntry(ptr noundef %96, i32 noundef %97, ptr noundef %98)
  store ptr null, ptr %9, align 8
  %99 = load i32, ptr %12, align 4
  %100 = add nsw i32 %99, 1
  store i32 %100, ptr %12, align 4
  br label %101

101:                                              ; preds = %89, %86
  %102 = load ptr, ptr %4, align 8
  %103 = load i32, ptr %12, align 4
  call void @Vec_PtrShrink(ptr noundef %102, i32 noundef %103)
  %104 = load ptr, ptr %4, align 8
  %105 = load i32, ptr %12, align 4
  call void @Vec_PtrShrink(ptr noundef %104, i32 noundef %105)
  ret void
}