; Function Attrs: nounwind uwtable
define void @Abc_NtkPartitionCompact(ptr noundef captures(none) %0, ptr noundef readonly captures(none) %1, i32 noundef %2) local_unnamed_addr #2 {
  %4 = icmp eq i32 %2, 0
  %spec.store.select = select i1 %4, i32 200, i32 %2
  %5 = getelementptr i8, ptr %1, i64 4
  %.val83 = load i32, ptr %5, align 4
  %6 = icmp sgt i32 %.val83, 0
  br i1 %6, label %.lr.ph, label %.critedge.thread

.lr.ph:                                           ; preds = %3
  %7 = getelementptr i8, ptr %1, i64 8
  %8 = getelementptr i8, ptr %0, i64 8
  br label %9

9:                                                ; preds = %.lr.ph, %64
  %indvars.iv = phi i64 [ 0, %.lr.ph ], [ %indvars.iv.next, %64 ]
  %.087 = phi i32 [ 0, %.lr.ph ], [ %.1, %64 ]
  %.04985 = phi ptr [ null, %.lr.ph ], [ %.251, %64 ]
  %.05284 = phi ptr [ null, %.lr.ph ], [ %.254, %64 ]
  %.val63 = load ptr, ptr %7, align 8
  %10 = getelementptr inbounds nuw ptr, ptr %.val63, i64 %indvars.iv
  %11 = load ptr, ptr %10, align 8
  %12 = getelementptr i8, ptr %11, i64 4
  %.val68 = load i32, ptr %12, align 4
  %13 = icmp slt i32 %.val68, %spec.store.select
  br i1 %13, label %14, label %49

14:                                               ; preds = %9
  %15 = icmp eq ptr %.04985, null
  br i1 %15, label %16, label %29

16:                                               ; preds = %14
  %17 = tail call noalias dereferenceable_or_null(16) ptr @malloc(i64 noundef 16) #22
  %18 = getelementptr inbounds nuw i8, ptr %17, i64 4
  store i32 %.val68, ptr %18, align 4
  store i32 %.val68, ptr %17, align 8
  %.not.i = icmp eq i32 %.val68, 0
  br i1 %.not.i, label %Vec_IntDup.exit, label %19

19:                                               ; preds = %16
  %20 = sext i32 %.val68 to i64
  %21 = shl nsw i64 %20, 2
  %22 = tail call noalias ptr @malloc(i64 noundef %21) #22
  br label %Vec_IntDup.exit

Vec_IntDup.exit:                                  ; preds = %16, %19
  %.pre-phi12.i = phi i64 [ %21, %19 ], [ 0, %16 ]
  %23 = phi ptr [ %22, %19 ], [ null, %16 ]
  %24 = getelementptr inbounds nuw i8, ptr %17, i64 8
  store ptr %23, ptr %24, align 8
  %25 = getelementptr inbounds nuw i8, ptr %11, i64 8
  %26 = load ptr, ptr %25, align 8
  tail call void @llvm.memcpy.p0.p0.i64(ptr align 4 %23, ptr align 4 %26, i64 %.pre-phi12.i, i1 false)
  %.val62 = load ptr, ptr %8, align 8
  %27 = getelementptr inbounds nuw ptr, ptr %.val62, i64 %indvars.iv
  %28 = load ptr, ptr %27, align 8
  br label %45

29:                                               ; preds = %14
  %30 = tail call fastcc ptr @Vec_IntTwoMerge(ptr noundef nonnull %.04985, ptr noundef nonnull %11)
  %31 = getelementptr inbounds nuw i8, ptr %.04985, i64 8
  %32 = load ptr, ptr %31, align 8
  %.not.i69 = icmp eq ptr %32, null
  br i1 %.not.i69, label %Vec_IntFree.exit, label %33

33:                                               ; preds = %29
  tail call void @free(ptr noundef nonnull %32) #23
  br label %Vec_IntFree.exit

Vec_IntFree.exit:                                 ; preds = %29, %33
  tail call void @free(ptr noundef nonnull %.04985) #23
  %.val61 = load ptr, ptr %8, align 8
  %34 = getelementptr inbounds nuw ptr, ptr %.val61, i64 %indvars.iv
  %35 = load ptr, ptr %34, align 8
  %36 = tail call fastcc ptr @Vec_IntTwoMerge(ptr noundef %.05284, ptr noundef %35)
  %37 = getelementptr inbounds nuw i8, ptr %.05284, i64 8
  %38 = load ptr, ptr %37, align 8
  %.not.i70 = icmp eq ptr %38, null
  br i1 %.not.i70, label %Vec_IntFree.exit71, label %39

39:                                               ; preds = %Vec_IntFree.exit
  tail call void @free(ptr noundef nonnull %38) #23
  br label %Vec_IntFree.exit71

Vec_IntFree.exit71:                               ; preds = %Vec_IntFree.exit, %39
  tail call void @free(ptr noundef nonnull %.05284) #23
  %.val60 = load ptr, ptr %8, align 8
  %40 = getelementptr inbounds nuw ptr, ptr %.val60, i64 %indvars.iv
  %41 = load ptr, ptr %40, align 8
  %42 = getelementptr inbounds nuw i8, ptr %41, i64 8
  %43 = load ptr, ptr %42, align 8
  %.not.i72 = icmp eq ptr %43, null
  br i1 %.not.i72, label %Vec_IntFree.exit73, label %44

44:                                               ; preds = %Vec_IntFree.exit71
  tail call void @free(ptr noundef nonnull %43) #23
  br label %Vec_IntFree.exit73

Vec_IntFree.exit73:                               ; preds = %Vec_IntFree.exit71, %44
  tail call void @free(ptr noundef nonnull %41) #23
  %.phi.trans.insert = getelementptr i8, ptr %30, i64 4
  %.150.val.pre = load i32, ptr %.phi.trans.insert, align 4
  br label %45

45:                                               ; preds = %Vec_IntFree.exit73, %Vec_IntDup.exit
  %.150.val = phi i32 [ %.val68, %Vec_IntDup.exit ], [ %.150.val.pre, %Vec_IntFree.exit73 ]
  %.153 = phi ptr [ %28, %Vec_IntDup.exit ], [ %36, %Vec_IntFree.exit73 ]
  %.150 = phi ptr [ %17, %Vec_IntDup.exit ], [ %30, %Vec_IntFree.exit73 ]
  %46 = icmp slt i32 %.150.val, %spec.store.select
  br i1 %46, label %64, label %.thread

.thread:                                          ; preds = %45
  %.val6780 = load ptr, ptr %8, align 8
  %47 = sext i32 %.087 to i64
  %48 = getelementptr inbounds ptr, ptr %.val6780, i64 %47
  store ptr %.153, ptr %48, align 8
  br label %54

49:                                               ; preds = %9
  %.val59 = load ptr, ptr %8, align 8
  %50 = getelementptr inbounds nuw ptr, ptr %.val59, i64 %indvars.iv
  %51 = load ptr, ptr %50, align 8
  %52 = sext i32 %.087 to i64
  %53 = getelementptr inbounds ptr, ptr %.val59, i64 %52
  store ptr %51, ptr %53, align 8
  %.not56 = icmp eq ptr %.04985, null
  br i1 %.not56, label %62, label %54

54:                                               ; preds = %.thread, %49
  %55 = phi i64 [ %47, %.thread ], [ %52, %49 ]
  %.382 = phi ptr [ %.150, %.thread ], [ %.04985, %49 ]
  %.val58 = load ptr, ptr %7, align 8
  %56 = getelementptr inbounds ptr, ptr %.val58, i64 %55
  %57 = load ptr, ptr %56, align 8
  %58 = getelementptr inbounds nuw i8, ptr %57, i64 8
  %59 = load ptr, ptr %58, align 8
  %.not.i74 = icmp eq ptr %59, null
  br i1 %.not.i74, label %Vec_IntFree.exit75, label %60

60:                                               ; preds = %54
  tail call void @free(ptr noundef nonnull %59) #23
  br label %Vec_IntFree.exit75

Vec_IntFree.exit75:                               ; preds = %54, %60
  tail call void @free(ptr noundef nonnull %57) #23
  %.val66 = load ptr, ptr %7, align 8
  %61 = getelementptr inbounds ptr, ptr %.val66, i64 %55
  store ptr %.382, ptr %61, align 8
  br label %62

62:                                               ; preds = %Vec_IntFree.exit75, %49
  %63 = add nsw i32 %.087, 1
  br label %64

64:                                               ; preds = %45, %62
  %.254 = phi ptr [ %.153, %45 ], [ null, %62 ]
  %.251 = phi ptr [ %.150, %45 ], [ null, %62 ]
  %.1 = phi i32 [ %.087, %45 ], [ %63, %62 ]
  %indvars.iv.next = add nuw nsw i64 %indvars.iv, 1
  %.val = load i32, ptr %5, align 4
  %65 = sext i32 %.val to i64
  %66 = icmp slt i64 %indvars.iv.next, %65
  br i1 %66, label %9, label %.critedge, !llvm.loop !30

.critedge:                                        ; preds = %64
  %.not = icmp eq ptr %.254, null
  br i1 %.not, label %.critedge.thread, label %67

67:                                               ; preds = %.critedge
  %68 = getelementptr i8, ptr %0, i64 8
  %.val65 = load ptr, ptr %68, align 8
  %69 = sext i32 %.1 to i64
  %70 = getelementptr inbounds ptr, ptr %.val65, i64 %69
  store ptr %.254, ptr %70, align 8
  %71 = getelementptr i8, ptr %1, i64 8
  %.val57 = load ptr, ptr %71, align 8
  %72 = getelementptr inbounds ptr, ptr %.val57, i64 %69
  %73 = load ptr, ptr %72, align 8
  %74 = getelementptr inbounds nuw i8, ptr %73, i64 8
  %75 = load ptr, ptr %74, align 8
  %.not.i76 = icmp eq ptr %75, null
  br i1 %.not.i76, label %Vec_IntFree.exit77, label %76

76:                                               ; preds = %67
  tail call void @free(ptr noundef nonnull %75) #23
  br label %Vec_IntFree.exit77

Vec_IntFree.exit77:                               ; preds = %67, %76
  tail call void @free(ptr noundef nonnull %73) #23
  %.val64 = load ptr, ptr %71, align 8
  %77 = getelementptr inbounds ptr, ptr %.val64, i64 %69
  store ptr %.251, ptr %77, align 8
  %78 = add nsw i32 %.1, 1
  br label %.critedge.thread

.critedge.thread:                                 ; preds = %3, %Vec_IntFree.exit77, %.critedge
  %.2 = phi i32 [ %78, %Vec_IntFree.exit77 ], [ %.1, %.critedge ], [ 0, %3 ]
  %79 = getelementptr inbounds nuw i8, ptr %0, i64 4
  store i32 %.2, ptr %79, align 4
  ret void
}